target datalayout = "e-m:e-p270:32:32-p271:32:32-p272:64:64-i64:64-i128:128-f80:128-n8:16:32:64-S128"
target triple = "x86_64-pc-linux-gnu"

; Function Attrs: mustprogress uwtable
define noundef i32 @_ZN10open_spiel9FactorialEi(i32 noundef %0) #4 {
  %2 = alloca i32, align 4
  store i32 %0, ptr %2, align 4
  %3 = load i32, ptr %2, align 4
  %4 = icmp sle i32 %3, 1
  br i1 %4, label %5, label %6

5:                                                ; preds = %1
  br label %12

6:                                                ; preds = %1
  %7 = load i32, ptr %2, align 4
  %8 = load i32, ptr %2, align 4
  %9 = sub nsw i32 %8, 1
  %10 = call noundef i32 @_ZN10open_spiel9FactorialEi(i32 noundef %9)
  %11 = mul nsw i32 %7, %10
  br label %12

12:                                               ; preds = %6, %5
  %13 = phi i32 [ 1, %5 ], [ %11, %6 ]
  ret i32 %13
}