; Function Attrs: mustprogress nofree norecurse nosync nounwind willreturn memory(none) uwtable
define noundef range(i32 1, -2147483648) i32 @_ZN10open_spiel9FactorialEi(i32 noundef %0) local_unnamed_addr #6 {
  %2 = icmp slt i32 %0, 2
  br i1 %2, label %tailrecurse._crit_edge, label %tailrecurse

tailrecurse:                                      ; preds = %1, %tailrecurse
  %.tr4 = phi i32 [ %3, %tailrecurse ], [ %0, %1 ]
  %accumulator.tr3 = phi i32 [ %4, %tailrecurse ], [ 1, %1 ]
  %3 = add nsw i32 %.tr4, -1
  %4 = mul nuw nsw i32 %.tr4, %accumulator.tr3
  %5 = icmp ult i32 %.tr4, 3
  br i1 %5, label %tailrecurse._crit_edge, label %tailrecurse

tailrecurse._crit_edge:                           ; preds = %tailrecurse, %1
  %accumulator.tr.lcssa = phi i32 [ 1, %1 ], [ %4, %tailrecurse ]
  ret i32 %accumulator.tr.lcssa
}